; Function Attrs: cold nounwind optsize uwtable
define internal noundef i32 @vqa_decode_end(ptr noundef readonly captures(none) %0) #0 {
  %2 = getelementptr inbounds nuw i8, ptr %0, i64 32
  %3 = load ptr, ptr %2, align 8, !tbaa !4
  tail call void @av_frame_free(ptr noundef %3) #8
  %4 = getelementptr inbounds nuw i8, ptr %3, i64 1088
  tail call void @av_freep(ptr noundef nonnull %4) #8
  %5 = getelementptr inbounds nuw i8, ptr %3, i64 1104
  tail call void @av_freep(ptr noundef nonnull %5) #8
  %6 = getelementptr inbounds nuw i8, ptr %3, i64 1120
  tail call void @av_freep(ptr noundef nonnull %6) #8
  ret i32 0
}